; Function Attrs: null_pointer_is_valid sspstrong uwtable
define internal fastcc void @parse_sdp_connection_address(ptr noundef readonly captures(none) %0, ptr noundef %1, ptr noundef %2, ptr noundef nonnull writeonly captures(none) %3) unnamed_addr #0 {
  %5 = alloca i32, align 4
  %6 = alloca %struct.e_in6_addr, align 1
  %7 = tail call i32 @strcmp(ptr noundef %0, ptr noundef nonnull dereferenceable(4) @.str.214) #14
  %8 = icmp eq i32 %7, 0
  br i1 %8, label %9, label %17

9:                                                ; preds = %4
  call void @llvm.lifetime.start.p0(i64 4, ptr nonnull %5) #11
  %10 = call zeroext i1 @str_to_ip(ptr noundef %1, ptr noundef nonnull %5)
  br i1 %10, label %11, label %16

11:                                               ; preds = %9
  call void @llvm.memset.p0.i64(ptr noundef nonnull align 8 dereferenceable(24) %3, i8 0, i64 24, i1 false)
  store i32 2, ptr %3, align 8
  %12 = call dereferenceable_or_null(4) ptr @wmem_memdup(ptr noundef %2, ptr noundef nonnull %5, i64 noundef 4) #13
  %13 = getelementptr inbounds nuw i8, ptr %3, i64 16
  store ptr %12, ptr %13, align 8
  %14 = getelementptr inbounds nuw i8, ptr %3, i64 8
  store ptr %12, ptr %14, align 8
  %15 = getelementptr inbounds nuw i8, ptr %3, i64 4
  store i32 4, ptr %15, align 4
  br label %16

16:                                               ; preds = %11, %9
  call void @llvm.lifetime.end.p0(i64 4, ptr nonnull %5) #11
  br label %28

17:                                               ; preds = %4
  %18 = tail call i32 @strcmp(ptr noundef %0, ptr noundef nonnull dereferenceable(4) @.str.215) #14
  %19 = icmp eq i32 %18, 0
  br i1 %19, label %20, label %28

20:                                               ; preds = %17
  call void @llvm.lifetime.start.p0(i64 16, ptr nonnull %6) #11
  %21 = call zeroext i1 @str_to_ip6(ptr noundef %1, ptr noundef nonnull %6)
  br i1 %21, label %22, label %27

22:                                               ; preds = %20
  call void @llvm.memset.p0.i64(ptr noundef nonnull align 8 dereferenceable(24) %3, i8 0, i64 24, i1 false)
  store i32 3, ptr %3, align 8
  %23 = call dereferenceable_or_null(16) ptr @wmem_memdup(ptr noundef %2, ptr noundef nonnull %6, i64 noundef 16) #13
  %24 = getelementptr inbounds nuw i8, ptr %3, i64 16
  store ptr %23, ptr %24, align 8
  %25 = getelementptr inbounds nuw i8, ptr %3, i64 8
  store ptr %23, ptr %25, align 8
  %26 = getelementptr inbounds nuw i8, ptr %3, i64 4
  store i32 16, ptr %26, align 4
  br label %27

27:                                               ; preds = %22, %20
  call void @llvm.lifetime.end.p0(i64 16, ptr nonnull %6) #11
  br label %28

28:                                               ; preds = %17, %27, %16
  ret void
}